target datalayout = "e-m:e-p270:32:32-p271:32:32-p272:64:64-i64:64-i128:128-f80:128-n8:16:32:64-S128"
target triple = "x86_64-pc-linux-gnu"

@_ZL11memset_func = internal constant ptr @memset, align 8

; Function Attrs: mustprogress uwtable
define hidden void @mbedtls_platform_zeroize(ptr noundef %0, i64 noundef %1) #0 {
  %3 = alloca ptr, align 8
  %4 = alloca i64, align 8
  store ptr %0, ptr %3, align 8, !tbaa !3
  store i64 %1, ptr %4, align 8, !tbaa !7
  br label %5

5:                                                ; preds = %2
  br label %6

6:                                                ; preds = %5
  %7 = load i64, ptr %4, align 8, !tbaa !7
  %8 = icmp ugt i64 %7, 0
  br i1 %8, label %9, label %14

9:                                                ; preds = %6
  %10 = load volatile ptr, ptr @_ZL11memset_func, align 8, !tbaa !3
  %11 = load ptr, ptr %3, align 8, !tbaa !3
  %12 = load i64, ptr %4, align 8, !tbaa !7
  %13 = call noundef ptr %10(ptr noundef %11, i32 noundef 0, i64 noundef %12)
  br label %14

14:                                               ; preds = %9, %6
  ret void
}

; Function Attrs: nounwind
declare ptr @memset(ptr noundef, i32 noundef, i64 noundef) #1


!llvm.module.flags = !{!0, !1, !2}

!0 = !{i32 1, !"wchar_size", i32 4}
!1 = !{i32 8, !"PIC Level", i32 2}
!2 = !{i32 7, !"uwtable", i32 2}
!3 = !{!4, !4, i64 0}
!4 = !{!"any pointer", !5, i64 0}
!5 = !{!"omnipotent char", !6, i64 0}
!6 = !{!"Simple C++ TBAA"}
!7 = !{!8, !8, i64 0}
!8 = !{!"long", !5, i64 0}
