; ModuleID = 'bench/duckdb/original/platform_util.ll'
source_filename = "bench/duckdb/original/platform_util.ll"
target datalayout = "e-m:e-p270:32:32-p271:32:32-p272:64:64-i64:64-i128:128-f80:128-n8:16:32:64-S128"
target triple = "x86_64-pc-linux-gnu"

@_ZL11memset_func = internal constant ptr @memset, align 8

; Function Attrs: mustprogress uwtable
define hidden void @mbedtls_platform_zeroize(ptr noundef %0, i64 noundef %1) local_unnamed_addr #0 {
  %.not = icmp eq i64 %1, 0
  br i1 %.not, label %6, label %3

3:                                                ; preds = %2
  %4 = load volatile ptr, ptr @_ZL11memset_func, align 8, !tbaa !3
  %5 = tail call noundef ptr %4(ptr noundef %0, i32 noundef 0, i64 noundef %1)
  br label %6

6:                                                ; preds = %3, %2
  ret void
}

; Function Attrs: mustprogress nofree nounwind willreturn memory(argmem: readwrite)
declare ptr @memset(ptr noundef writeonly, i32 noundef, i64 noundef) #1


!llvm.module.flags = !{!0, !1, !2}

!0 = !{i32 1, !"wchar_size", i32 4}
!1 = !{i32 8, !"PIC Level", i32 2}
!2 = !{i32 7, !"uwtable", i32 2}
!3 = !{!4, !4, i64 0}
!4 = !{!"any pointer", !5, i64 0}
!5 = !{!"omnipotent char", !6, i64 0}
!6 = !{!"Simple C++ TBAA"}
